; Function Attrs: inlinehint nounwind uwtable
define internal fastcc i64 @fastgetattr(ptr noundef %0, i32 noundef range(i32 1, 4) %1, ptr noundef %2, ptr noundef nonnull writeonly captures(none) initializes((0, 1)) %3) unnamed_addr #14 {
  store i8 0, ptr %3, align 1
  %5 = getelementptr i8, ptr %0, i64 16
  %.val = load ptr, ptr %5, align 8
  %6 = getelementptr i8, ptr %.val, i64 20
  %.val.val = load i16, ptr %6, align 4
  %7 = and i16 %.val.val, 1
  %.not.i = icmp eq i16 %7, 0
  %8 = add nsw i32 %1, -1
  br i1 %.not.i, label %9, label %47

9:                                                ; preds = %4
  %10 = getelementptr inbounds nuw i8, ptr %2, i64 24
  %11 = zext nneg i32 %8 to i64
  %12 = getelementptr inbounds nuw [0 x %struct.CompactAttribute], ptr %10, i64 0, i64 %11
  %13 = load i32, ptr %12, align 4
  %14 = icmp sgt i32 %13, -1
  br i1 %14, label %15, label %45

15:                                               ; preds = %9
  %16 = getelementptr inbounds nuw i8, ptr %.val, i64 22
  %17 = load i8, ptr %16, align 2
  %18 = zext i8 %17 to i64
  %19 = getelementptr inbounds nuw i8, ptr %.val, i64 %18
  %20 = zext nneg i32 %13 to i64
  %21 = getelementptr inbounds nuw i8, ptr %19, i64 %20
  %22 = getelementptr inbounds nuw i8, ptr %12, i64 6
  %23 = load i8, ptr %22, align 2, !range !6, !noundef !7
  %24 = trunc nuw i8 %23 to i1
  %25 = getelementptr inbounds nuw i8, ptr %12, i64 4
  %26 = load i16, ptr %25, align 4
  br i1 %24, label %27, label %43

27:                                               ; preds = %15
  switch i16 %26, label %39 [
    i16 1, label %28
    i16 2, label %31
    i16 4, label %34
    i16 8, label %37
  ]

28:                                               ; preds = %27
  %29 = load i8, ptr %21, align 1
  %30 = sext i8 %29 to i64
  br label %fetch_att.exit

31:                                               ; preds = %27
  %32 = load i16, ptr %21, align 2
  %33 = sext i16 %32 to i64
  br label %fetch_att.exit

34:                                               ; preds = %27
  %35 = load i32, ptr %21, align 4
  %36 = sext i32 %35 to i64
  br label %fetch_att.exit

37:                                               ; preds = %27
  %38 = load i64, ptr %21, align 8
  br label %fetch_att.exit

39:                                               ; preds = %27
  %40 = sext i16 %26 to i32
  %41 = tail call zeroext i1 @errstart_cold(i32 noundef 21, ptr noundef null) #20
  tail call void @llvm.assume(i1 %41)
  %42 = tail call i32 (ptr, ...) @errmsg_internal(ptr noundef nonnull @.str.27, i32 noundef range(i32 -32768, 32768) %40) #19
  tail call void @errfinish(ptr noundef nonnull @.str.28, i32 noundef 70, ptr noundef nonnull @__func__.fetch_att) #19
  unreachable

43:                                               ; preds = %15
  %44 = ptrtoint ptr %21 to i64
  br label %fetch_att.exit

45:                                               ; preds = %9
  %46 = tail call i64 @nocachegetattr(ptr noundef nonnull %0, i32 noundef %1, ptr noundef nonnull %2) #19
  br label %fetch_att.exit

47:                                               ; preds = %4
  %48 = getelementptr inbounds nuw i8, ptr %.val, i64 23
  %.val20 = load i8, ptr %48, align 1
  %49 = zext i8 %.val20 to i32
  %50 = shl nuw nsw i32 1, %8
  %51 = and i32 %50, %49
  %.not.i21 = icmp eq i32 %51, 0
  br i1 %.not.i21, label %52, label %53

52:                                               ; preds = %47
  store i8 1, ptr %3, align 1
  br label %fetch_att.exit

53:                                               ; preds = %47
  %54 = tail call i64 @nocachegetattr(ptr noundef nonnull %0, i32 noundef %1, ptr noundef %2) #19
  br label %fetch_att.exit

fetch_att.exit:                                   ; preds = %43, %37, %34, %31, %28, %45, %53, %52
  %.1 = phi i64 [ 0, %52 ], [ %54, %53 ], [ %46, %45 ], [ %38, %37 ], [ %36, %34 ], [ %33, %31 ], [ %30, %28 ], [ %44, %43 ]
  ret i64 %.1
}